target datalayout = "e-m:e-p270:32:32-p271:32:32-p272:64:64-i64:64-i128:128-f80:128-n8:16:32:64-S128"
target triple = "x86_64-pc-linux-gnu"

@libctx = internal global ptr null, align 8
@.str.5 = private unnamed_addr constant [3 x i8] c"EC\00", align 1
@.str.43 = private unnamed_addr constant [6 x i8] c"group\00", align 1
@.str.44 = private unnamed_addr constant [4 x i8] c"pub\00", align 1
@.str.45 = private unnamed_addr constant [5 x i8] c"priv\00", align 1

; Function Attrs: nounwind uwtable
define internal ptr @new_raw_private_key(ptr noundef %0, ptr noundef %1, i64 noundef %2, ptr noundef %3, i64 noundef %4) #0 {
  %6 = alloca ptr, align 8
  %7 = alloca ptr, align 8
  %8 = alloca ptr, align 8
  %9 = alloca i64, align 8
  %10 = alloca ptr, align 8
  %11 = alloca i64, align 8
  %12 = alloca i32, align 4
  %13 = alloca ptr, align 8
  %14 = alloca ptr, align 8
  %15 = alloca ptr, align 8
  %16 = alloca ptr, align 8
  %17 = alloca ptr, align 8
  %18 = alloca i32, align 4
  %19 = alloca i32, align 4
  store ptr %0, ptr %7, align 8, !tbaa !4
  store ptr %1, ptr %8, align 8, !tbaa !4
  store i64 %2, ptr %9, align 8, !tbaa !13
  store ptr %3, ptr %10, align 8, !tbaa !4
  store i64 %4, ptr %11, align 8, !tbaa !13
  call void @llvm.lifetime.start.p0(i64 4, ptr %12) #6
  store i32 0, ptr %12, align 4, !tbaa !10
  call void @llvm.lifetime.start.p0(i64 8, ptr %13) #6
  call void @llvm.lifetime.start.p0(i64 8, ptr %14) #6
  store ptr null, ptr %14, align 8, !tbaa !17
  call void @llvm.lifetime.start.p0(i64 8, ptr %15) #6
  store ptr null, ptr %15, align 8, !tbaa !31
  call void @llvm.lifetime.start.p0(i64 8, ptr %16) #6
  store ptr null, ptr %16, align 8, !tbaa !37
  call void @llvm.lifetime.start.p0(i64 8, ptr %17) #6
  store ptr null, ptr %17, align 8, !tbaa !50
  call void @llvm.lifetime.start.p0(i64 4, ptr %18) #6
  %20 = load ptr, ptr %7, align 8, !tbaa !4
  %21 = getelementptr inbounds i8, ptr %20, i64 0
  %22 = load i8, ptr %21, align 1, !tbaa !47
  %23 = sext i8 %22 to i32
  %24 = icmp eq i32 %23, 88
  %25 = zext i1 %24 to i32
  store i32 %25, ptr %18, align 4, !tbaa !10
  %26 = load i32, ptr %18, align 4, !tbaa !10
  %27 = icmp ne i32 %26, 0
  br i1 %27, label %28, label %32

28:                                               ; preds = %5
  %29 = load ptr, ptr @libctx, align 8, !tbaa !15
  %30 = load ptr, ptr %7, align 8, !tbaa !4
  %31 = call ptr @EVP_PKEY_CTX_new_from_name(ptr noundef %29, ptr noundef %30, ptr noundef null)
  store ptr %31, ptr %13, align 8, !tbaa !19
  br label %35

32:                                               ; preds = %5
  %33 = load ptr, ptr @libctx, align 8, !tbaa !15
  %34 = call ptr @EVP_PKEY_CTX_new_from_name(ptr noundef %33, ptr noundef @.str.5, ptr noundef null)
  store ptr %34, ptr %13, align 8, !tbaa !19
  br label %35

35:                                               ; preds = %32, %28
  %36 = load ptr, ptr %13, align 8, !tbaa !19
  %37 = icmp eq ptr %36, null
  br i1 %37, label %38, label %39

38:                                               ; preds = %35
  store ptr null, ptr %6, align 8
  store i32 1, ptr %19, align 4
  br label %116

39:                                               ; preds = %35
  %40 = call ptr @OSSL_PARAM_BLD_new()
  store ptr %40, ptr %17, align 8, !tbaa !50
  %41 = load ptr, ptr %17, align 8, !tbaa !50
  %42 = icmp eq ptr %41, null
  br i1 %42, label %43, label %44

43:                                               ; preds = %39
  br label %105

44:                                               ; preds = %39
  %45 = load i32, ptr %18, align 4, !tbaa !10
  %46 = icmp ne i32 %45, 0
  br i1 %46, label %47, label %55

47:                                               ; preds = %44
  %48 = load ptr, ptr %17, align 8, !tbaa !50
  %49 = load ptr, ptr %8, align 8, !tbaa !4
  %50 = load i64, ptr %9, align 8, !tbaa !13
  %51 = call i32 @OSSL_PARAM_BLD_push_octet_string(ptr noundef %48, ptr noundef @.str.45, ptr noundef %49, i64 noundef %50)
  %52 = icmp ne i32 %51, 0
  br i1 %52, label %54, label %53

53:                                               ; preds = %47
  br label %105

54:                                               ; preds = %47
  br label %76

55:                                               ; preds = %44
  %56 = load ptr, ptr %8, align 8, !tbaa !4
  %57 = load i64, ptr %9, align 8, !tbaa !13
  %58 = trunc i64 %57 to i32
  %59 = call ptr @BN_bin2bn(ptr noundef %56, i32 noundef %58, ptr noundef null)
  store ptr %59, ptr %16, align 8, !tbaa !37
  %60 = load ptr, ptr %16, align 8, !tbaa !37
  %61 = icmp eq ptr %60, null
  br i1 %61, label %62, label %63

62:                                               ; preds = %55
  br label %105

63:                                               ; preds = %55
  %64 = load ptr, ptr %17, align 8, !tbaa !50
  %65 = load ptr, ptr %7, align 8, !tbaa !4
  %66 = call i32 @OSSL_PARAM_BLD_push_utf8_string(ptr noundef %64, ptr noundef @.str.43, ptr noundef %65, i64 noundef 0)
  %67 = icmp ne i32 %66, 0
  br i1 %67, label %69, label %68

68:                                               ; preds = %63
  br label %105

69:                                               ; preds = %63
  %70 = load ptr, ptr %17, align 8, !tbaa !50
  %71 = load ptr, ptr %16, align 8, !tbaa !37
  %72 = call i32 @OSSL_PARAM_BLD_push_BN(ptr noundef %70, ptr noundef @.str.45, ptr noundef %71)
  %73 = icmp ne i32 %72, 0
  br i1 %73, label %75, label %74

74:                                               ; preds = %69
  br label %105

75:                                               ; preds = %69
  br label %76

76:                                               ; preds = %75, %54
  %77 = load ptr, ptr %10, align 8, !tbaa !4
  %78 = icmp ne ptr %77, null
  br i1 %78, label %79, label %87

79:                                               ; preds = %76
  %80 = load ptr, ptr %17, align 8, !tbaa !50
  %81 = load ptr, ptr %10, align 8, !tbaa !4
  %82 = load i64, ptr %11, align 8, !tbaa !13
  %83 = call i32 @OSSL_PARAM_BLD_push_octet_string(ptr noundef %80, ptr noundef @.str.44, ptr noundef %81, i64 noundef %82)
  %84 = icmp ne i32 %83, 0
  br i1 %84, label %86, label %85

85:                                               ; preds = %79
  br label %105

86:                                               ; preds = %79
  br label %87

87:                                               ; preds = %86, %76
  %88 = load ptr, ptr %17, align 8, !tbaa !50
  %89 = call ptr @OSSL_PARAM_BLD_to_param(ptr noundef %88)
  store ptr %89, ptr %15, align 8, !tbaa !31
  %90 = load ptr, ptr %15, align 8, !tbaa !31
  %91 = icmp eq ptr %90, null
  br i1 %91, label %92, label %93

92:                                               ; preds = %87
  br label %105

93:                                               ; preds = %87
  %94 = load ptr, ptr %13, align 8, !tbaa !19
  %95 = call i32 @EVP_PKEY_fromdata_init(ptr noundef %94)
  %96 = icmp sle i32 %95, 0
  br i1 %96, label %97, label %98

97:                                               ; preds = %93
  br label %105

98:                                               ; preds = %93
  %99 = load ptr, ptr %13, align 8, !tbaa !19
  %100 = load ptr, ptr %15, align 8, !tbaa !31
  %101 = call i32 @EVP_PKEY_fromdata(ptr noundef %99, ptr noundef %14, i32 noundef 135, ptr noundef %100)
  %102 = icmp sle i32 %101, 0
  br i1 %102, label %103, label %104

103:                                              ; preds = %98
  br label %105

104:                                              ; preds = %98
  store i32 1, ptr %12, align 4, !tbaa !10
  br label %105

105:                                              ; preds = %104, %103, %97, %92, %85, %74, %68, %62, %53, %43
  %106 = load i32, ptr %12, align 4, !tbaa !10
  %107 = icmp ne i32 %106, 0
  br i1 %107, label %110, label %108

108:                                              ; preds = %105
  %109 = load ptr, ptr %14, align 8, !tbaa !17
  call void @EVP_PKEY_free(ptr noundef %109)
  store ptr null, ptr %14, align 8, !tbaa !17
  br label %110

110:                                              ; preds = %108, %105
  %111 = load ptr, ptr %16, align 8, !tbaa !37
  call void @BN_free(ptr noundef %111)
  %112 = load ptr, ptr %15, align 8, !tbaa !31
  call void @OSSL_PARAM_free(ptr noundef %112)
  %113 = load ptr, ptr %17, align 8, !tbaa !50
  call void @OSSL_PARAM_BLD_free(ptr noundef %113)
  %114 = load ptr, ptr %13, align 8, !tbaa !19
  call void @EVP_PKEY_CTX_free(ptr noundef %114)
  %115 = load ptr, ptr %14, align 8, !tbaa !17
  store ptr %115, ptr %6, align 8
  store i32 1, ptr %19, align 4
  br label %116

116:                                              ; preds = %110, %38
  call void @llvm.lifetime.end.p0(i64 4, ptr %18) #6
  call void @llvm.lifetime.end.p0(i64 8, ptr %17) #6
  call void @llvm.lifetime.end.p0(i64 8, ptr %16) #6
  call void @llvm.lifetime.end.p0(i64 8, ptr %15) #6
  call void @llvm.lifetime.end.p0(i64 8, ptr %14) #6
  call void @llvm.lifetime.end.p0(i64 8, ptr %13) #6
  call void @llvm.lifetime.end.p0(i64 4, ptr %12) #6
  %117 = load ptr, ptr %6, align 8
  ret ptr %117
}