; Function Attrs: nounwind uwtable
define internal fastcc ptr @new_raw_private_key(ptr noundef %0, ptr noundef %1, i64 noundef %2, ptr noundef %3, i64 noundef %4) unnamed_addr #0 {
  %6 = alloca ptr, align 8
  call void @llvm.lifetime.start.p0(i64 8, ptr nonnull %6) #5
  store ptr null, ptr %6, align 8, !tbaa !17
  %7 = load i8, ptr %0, align 1, !tbaa !49
  %8 = icmp eq i8 %7, 88
  %9 = load ptr, ptr @libctx, align 8, !tbaa !15
  %..str.5 = select i1 %8, ptr %0, ptr @.str.5
  %10 = tail call ptr @EVP_PKEY_CTX_new_from_name(ptr noundef %9, ptr noundef nonnull %..str.5, ptr noundef null) #5
  %11 = icmp eq ptr %10, null
  br i1 %11, label %41, label %12

12:                                               ; preds = %5
  %13 = tail call ptr @OSSL_PARAM_BLD_new() #5
  %14 = icmp eq ptr %13, null
  br i1 %14, label %.thread, label %15

15:                                               ; preds = %12
  br i1 %8, label %16, label %18

16:                                               ; preds = %15
  %17 = tail call i32 @OSSL_PARAM_BLD_push_octet_string(ptr noundef nonnull %13, ptr noundef nonnull @.str.45, ptr noundef %1, i64 noundef %2) #5
  %.not41 = icmp eq i32 %17, 0
  br i1 %.not41, label %.thread, label %26

18:                                               ; preds = %15
  %19 = trunc i64 %2 to i32
  %20 = tail call ptr @BN_bin2bn(ptr noundef %1, i32 noundef %19, ptr noundef null) #5
  %21 = icmp eq ptr %20, null
  br i1 %21, label %.thread, label %22

22:                                               ; preds = %18
  %23 = tail call i32 @OSSL_PARAM_BLD_push_utf8_string(ptr noundef nonnull %13, ptr noundef nonnull @.str.43, ptr noundef nonnull %0, i64 noundef 0) #5
  %.not = icmp eq i32 %23, 0
  br i1 %.not, label %.thread, label %24

24:                                               ; preds = %22
  %25 = tail call i32 @OSSL_PARAM_BLD_push_BN(ptr noundef nonnull %13, ptr noundef nonnull @.str.45, ptr noundef nonnull %20) #5
  %.not40 = icmp eq i32 %25, 0
  br i1 %.not40, label %.thread, label %26

26:                                               ; preds = %24, %16
  %.1 = phi ptr [ null, %16 ], [ %20, %24 ]
  %.not42 = icmp eq ptr %3, null
  br i1 %.not42, label %29, label %27

27:                                               ; preds = %26
  %28 = tail call i32 @OSSL_PARAM_BLD_push_octet_string(ptr noundef nonnull %13, ptr noundef nonnull @.str.44, ptr noundef nonnull %3, i64 noundef %4) #5
  %.not43 = icmp eq i32 %28, 0
  br i1 %.not43, label %.thread, label %29

29:                                               ; preds = %27, %26
  %30 = tail call ptr @OSSL_PARAM_BLD_to_param(ptr noundef nonnull %13) #5
  %31 = icmp eq ptr %30, null
  br i1 %31, label %.thread, label %32

32:                                               ; preds = %29
  %33 = tail call i32 @EVP_PKEY_fromdata_init(ptr noundef nonnull %10) #5
  %34 = icmp slt i32 %33, 1
  br i1 %34, label %.thread, label %35

35:                                               ; preds = %32
  %36 = call i32 @EVP_PKEY_fromdata(ptr noundef nonnull %10, ptr noundef nonnull %6, i32 noundef 135, ptr noundef nonnull %30) #5
  %37 = icmp slt i32 %36, 1
  br i1 %37, label %..thread_crit_edge, label %39

..thread_crit_edge:                               ; preds = %35
  %.pre = load ptr, ptr %6, align 8, !tbaa !17
  br label %.thread

.thread:                                          ; preds = %..thread_crit_edge, %22, %24, %18, %16, %27, %32, %29, %12
  %38 = phi ptr [ %.pre, %..thread_crit_edge ], [ null, %22 ], [ null, %24 ], [ null, %18 ], [ null, %16 ], [ null, %27 ], [ null, %32 ], [ null, %29 ], [ null, %12 ]
  %.03051 = phi ptr [ %.1, %..thread_crit_edge ], [ %20, %22 ], [ %20, %24 ], [ null, %18 ], [ null, %16 ], [ %.1, %27 ], [ %.1, %32 ], [ %.1, %29 ], [ null, %12 ]
  %.03149 = phi ptr [ %30, %..thread_crit_edge ], [ null, %22 ], [ null, %24 ], [ null, %18 ], [ null, %16 ], [ null, %27 ], [ %30, %32 ], [ null, %29 ], [ null, %12 ]
  call void @EVP_PKEY_free(ptr noundef %38) #5
  store ptr null, ptr %6, align 8, !tbaa !17
  br label %39

39:                                               ; preds = %.thread, %35
  %.03050 = phi ptr [ %.03051, %.thread ], [ %.1, %35 ]
  %.03148 = phi ptr [ %.03149, %.thread ], [ %30, %35 ]
  call void @BN_free(ptr noundef %.03050) #5
  call void @OSSL_PARAM_free(ptr noundef %.03148) #5
  call void @OSSL_PARAM_BLD_free(ptr noundef %13) #5
  call void @EVP_PKEY_CTX_free(ptr noundef nonnull %10) #5
  %40 = load ptr, ptr %6, align 8, !tbaa !17
  br label %41

41:                                               ; preds = %5, %39
  %.0 = phi ptr [ %40, %39 ], [ null, %5 ]
  call void @llvm.lifetime.end.p0(i64 8, ptr nonnull %6) #5
  ret ptr %.0
}